Certificate:
    Data:
        Version: 3 (0x2)
        Serial Number:
            75:e0:87:c1:2b:c8:e8:ff:56:a4:af:29:da:14:cd:42
        Signature Algorithm: sha256WithRSAEncryption
        Issuer: CN=server1
        Validity
            Not Before: May  4 19:32:39 2022 GMT
            Not After : Apr 18 19:32:39 2025 GMT
        Subject: CN=server3
        Subject Public Key Info:
            Public Key Algorithm: rsaEncryption
                RSA Public-Key: (2048 bit)
                Modulus:
                    00:f0:e0:a0:38:bd:86:bd:a2:9b:dd:21:9a:bd:37:
                    61:5e:a1:2e:4b:27:8f:9e:0a:54:29:c6:bd:c5:af:
                    c1:d1:a9:3a:f6:53:30:58:c8:57:da:ad:4f:69:18:
                    b9:ca:f4:b2:9e:58:71:a6:f1:51:43:1c:b9:01:84:
                    33:6c:d8:da:15:af:b1:48:81:8f:4f:0d:ef:77:56:
                    e3:1c:c6:c6:36:55:ea:3e:6b:41:e1:99:55:ee:83:
                    ec:67:68:d0:7d:29:66:df:2c:da:84:1f:2d:2a:8e:
                    9a:04:8a:ee:99:22:8d:de:fc:f7:3a:5c:c7:80:36:
                    bf:2a:e6:cf:5d:70:c1:f5:ce:8a:8b:c2:04:11:59:
                    bd:58:95:8a:f3:31:76:d5:3f:5d:86:3f:ae:17:08:
                    18:be:db:f0:e9:1f:ff:8a:30:eb:43:37:7b:8e:58:
                    26:dc:e6:c7:3d:4e:56:07:5f:9d:b0:2f:3f:44:28:
                    a2:72:7b:e0:0e:65:c9:a2:26:90:e1:6d:c7:b1:2a:
                    b5:4f:cb:3f:76:c4:8b:f1:b7:26:29:0c:ad:f8:cc:
                    21:2d:20:03:88:86:a0:4f:83:80:87:f2:13:72:a5:
                    16:94:d6:26:13:b9:a1:90:1b:9c:7b:57:39:fc:40:
                    1f:6b:72:ec:e3:97:4b:1d:e8:cf:27:cc:5e:cb:34:
                    43:bf
                Exponent: 65537 (0x10001)
        X509v3 extensions:
            X509v3 Basic Constraints: 
                CA:FALSE
            X509v3 Subject Key Identifier: 
                59:46:BE:8C:AB:8F:A3:3A:F4:92:A9:C5:C6:51:CC:1C:76:E4:D1:33
            X509v3 Authority Key Identifier: 
                keyid:FE:7F:CB:22:19:46:3C:0A:4B:F4:49:38:E7:5B:A2:28:06:41:E7:1A
                DirName:/CN=server1
                serial:50:8F:FE:A5:71:FC:D8:17:58:B6:4C:D4:89:3E:45:72:5D:60:C1:10

            X509v3 Extended Key Usage: 
                TLS Web Client Authentication
            X509v3 Key Usage: 
                Digital Signature
    Signature Algorithm: sha256WithRSAEncryption
         ab:94:54:e8:4b:87:ab:ef:a4:b7:24:a6:e6:a8:5a:88:96:a2:
         7a:fa:f2:f0:72:b7:59:19:1c:78:e3:ab:5b:16:52:82:fa:f7:
         3b:d1:0f:25:81:08:3f:ae:3f:a3:2c:c1:77:e1:e9:6b:d0:a2:
         9a:90:a7:34:77:92:f4:af:0c:36:d5:98:b2:93:b9:c0:69:7e:
         50:7f:84:9a:0d:32:db:4e:94:d9:15:58:28:75:d6:84:7d:64:
         62:35:e1:63:86:9a:1b:a6:a1:b5:4b:6a:cd:3f:04:27:cf:bf:
         78:8c:20:be:89:11:3a:a0:07:19:d0:3e:73:23:3d:08:a0:f4:
         ac:fd:0b:c9:cb:2f:93:3f:ea:04:80:13:e8:33:f2:67:99:de:
         b1:0b:7d:b8:f7:82:90:1c:e5:73:8a:9e:e7:0d:01:94:ef:68:
         bf:41:6d:62:e3:7b:b7:8e:ad:0e:5c:a2:c2:62:97:ed:2a:e1:
         cb:23:2c:d2:9c:ca:6a:6c:c0:b1:04:8d:f0:09:5b:ad:11:c2:
         84:28:51:ee:df:c1:22:0d:64:a2:d8:cb:2d:32:5f:fa:10:58:
         a4:22:ca:83:5c:b4:93:cf:96:e1:fb:96:21:2a:fb:11:37:42:
         ea:c2:3a:4e:0b:ae:d3:a4:bd:c6:14:a2:7a:ce:7d:31:ef:cb:
         34:49:e5:67
-----BEGIN CERTIFICATE-----
MIIDTTCCAjWgAwIBAgIQdeCHwSvI6P9WpK8p2hTNQjANBgkqhkiG9w0BAQsFADAS
MRAwDgYDVQQDDAdzZXJ2ZXIxMB4XDTIyMDUwNDE5MzIzOVoXDTI1MDQxODE5MzIz
OVowEjEQMA4GA1UEAwwHc2VydmVyMzCCASIwDQYJKoZIhvcNAQEBBQADggEPADCC
AQoCggEBAPDgoDi9hr2im90hmr03YV6hLksnj54KVCnGvcWvwdGpOvZTMFjIV9qt
T2kYucr0sp5YcabxUUMcuQGEM2zY2hWvsUiBj08N73dW4xzGxjZV6j5rQeGZVe6D
7Gdo0H0pZt8s2oQfLSqOmgSK7pkijd789zpcx4A2vyrmz11wwfXOiovCBBFZvViV
ivMxdtU/XYY/rhcIGL7b8Okf/4ow60M3e45YJtzmxz1OVgdfnbAvP0QoonJ74A5l
yaImkOFtx7EqtU/LP3bEi/G3JikMrfjMIS0gA4iGoE+DgIfyE3KlFpTWJhO5oZAb
nHtXOfxAH2ty7OOXSx3ozyfMXss0Q78CAwEAAaOBnjCBmzAJBgNVHRMEAjAAMB0G
A1UdDgQWBBRZRr6Mq4+jOvSSqcXGUcwcduTRMzBNBgNVHSMERjBEgBT+f8siGUY8
Ckv0STjnW6IoBkHnGqEWpBQwEjEQMA4GA1UEAwwHc2VydmVyMYIUUI/+pXH82BdY
tkzUiT5Fcl1gwRAwEwYDVR0lBAwwCgYIKwYBBQUHAwIwCwYDVR0PBAQDAgeAMA0G
CSqGSIb3DQEBCwUAA4IBAQCrlFToS4er76S3JKbmqFqIlqJ6+vLwcrdZGRx446tb
FlKC+vc70Q8lgQg/rj+jLMF34elr0KKakKc0d5L0rww21Ziyk7nAaX5Qf4SaDTLb
TpTZFVgoddaEfWRiNeFjhpobpqG1S2rNPwQnz794jCC+iRE6oAcZ0D5zIz0IoPSs
/QvJyy+TP+oEgBPoM/Jnmd6xC32494KQHOVzip7nDQGU72i/QW1i43u3jq0OXKLC
YpftKuHLIyzSnMpqbMCxBI3wCVutEcKEKFHu38EiDWSi2MstMl/6EFikIsqDXLST
z5bh+5YhKvsRN0LqwjpOC67TpL3GFKJ6zn0x78s0SeVn
-----END CERTIFICATE-----
