Certificate:
    Data:
        Version: 3 (0x2)
        Serial Number:
            3a:18:da:ff:54:5b:20:e9:32:f3:60:24:1d:84:5b:14
        Signature Algorithm: sha256WithRSAEncryption
        Issuer: CN=server1
        Validity
            Not Before: May  4 19:26:57 2022 GMT
            Not After : Apr 18 19:26:57 2025 GMT
        Subject: CN=server2
        Subject Public Key Info:
            Public Key Algorithm: rsaEncryption
                RSA Public-Key: (2048 bit)
                Modulus:
                    00:b5:ef:f3:22:39:83:13:13:67:0a:8b:96:70:94:
                    f8:73:03:25:2d:74:b4:3a:33:f3:81:11:d5:4b:6e:
                    3d:6b:a4:b2:9a:57:74:16:27:5d:68:99:e6:3c:f1:
                    ad:d3:d8:7c:cf:7d:85:a8:b8:bd:eb:11:a9:b4:fa:
                    9a:0a:ea:3c:0a:e5:2e:27:2b:ab:ea:43:be:d5:57:
                    39:b8:6a:af:6a:37:c9:2f:39:8c:60:1e:32:b4:10:
                    a4:cf:50:74:c5:1b:ef:ab:15:94:6e:fe:1e:6f:48:
                    33:11:53:b4:7f:a1:eb:ab:37:02:09:62:d0:54:80:
                    be:f8:9e:90:f1:c7:71:a8:55:0b:ab:c2:fc:72:da:
                    76:40:60:44:03:2c:60:ec:8c:f3:28:2c:d5:be:a4:
                    72:45:bc:9b:9e:a3:de:f1:fe:08:e1:d8:49:32:df:
                    dd:86:06:9d:0b:10:a6:2a:a6:77:38:72:fb:20:4b:
                    23:2d:1d:f8:cb:b6:ff:20:61:a1:86:ed:6b:3f:48:
                    c5:4b:25:8d:6c:e9:1a:1a:81:71:9d:67:88:ed:4b:
                    f1:78:c8:fe:e2:8d:f2:7e:15:e9:35:5a:35:6a:5f:
                    f4:58:6a:fa:8a:7e:99:56:ba:04:60:4c:96:97:2a:
                    13:56:22:28:73:95:21:8d:a4:0c:2f:de:17:5d:95:
                    f5:35
                Exponent: 65537 (0x10001)
        X509v3 extensions:
            X509v3 Basic Constraints: 
                CA:FALSE
            X509v3 Subject Key Identifier: 
                CD:72:4A:9A:CF:EB:AC:0F:E5:03:E4:7A:3B:BF:F6:05:11:8B:11:B7
            X509v3 Authority Key Identifier: 
                keyid:FE:7F:CB:22:19:46:3C:0A:4B:F4:49:38:E7:5B:A2:28:06:41:E7:1A
                DirName:/CN=server1
                serial:50:8F:FE:A5:71:FC:D8:17:58:B6:4C:D4:89:3E:45:72:5D:60:C1:10

            X509v3 Extended Key Usage: 
                TLS Web Client Authentication
            X509v3 Key Usage: 
                Digital Signature
    Signature Algorithm: sha256WithRSAEncryption
         b1:8d:d9:4b:80:e9:d8:34:5c:3d:4d:5e:0d:0c:73:44:9c:11:
         ce:5a:3e:f2:0f:b4:89:39:a6:9e:c7:a0:ef:27:81:86:23:92:
         5b:10:06:22:57:7f:a3:46:de:d6:67:43:03:57:e1:73:17:18:
         68:69:6c:cc:01:3a:9c:bd:73:43:a0:42:17:43:93:46:ca:c8:
         25:0d:98:c0:25:12:26:c5:a0:b1:62:a7:a3:2e:65:87:5d:d2:
         a2:b6:61:5b:97:5b:9a:dd:27:52:a0:51:91:45:fc:ec:07:e4:
         37:d3:ac:71:f9:02:db:dc:0e:53:a7:5d:66:aa:59:40:ca:48:
         c4:d9:e5:fe:91:5a:79:4b:12:4e:07:bd:ea:a9:6c:43:ee:95:
         99:fd:72:36:8a:85:e7:bf:e1:9d:98:d8:7d:f3:4c:91:8e:4a:
         e0:d0:2d:b7:ae:c4:db:12:d7:af:71:e5:99:b0:9d:91:5b:87:
         d6:45:52:f0:58:6c:8e:09:16:36:5e:7e:6c:f5:80:18:18:74:
         60:2b:52:57:b8:c3:13:49:c7:ae:84:c2:73:a1:54:0e:e3:95:
         f0:de:fa:0e:81:c6:b0:6d:10:29:2e:bd:40:c3:a8:1b:57:e8:
         c7:dd:b7:1d:9a:bf:1e:3a:72:8d:cb:db:19:d9:74:40:a1:70:
         bd:34:96:b9
-----BEGIN CERTIFICATE-----
MIIDTTCCAjWgAwIBAgIQOhja/1RbIOky82AkHYRbFDANBgkqhkiG9w0BAQsFADAS
MRAwDgYDVQQDDAdzZXJ2ZXIxMB4XDTIyMDUwNDE5MjY1N1oXDTI1MDQxODE5MjY1
N1owEjEQMA4GA1UEAwwHc2VydmVyMjCCASIwDQYJKoZIhvcNAQEBBQADggEPADCC
AQoCggEBALXv8yI5gxMTZwqLlnCU+HMDJS10tDoz84ER1UtuPWuksppXdBYnXWiZ
5jzxrdPYfM99hai4vesRqbT6mgrqPArlLicrq+pDvtVXObhqr2o3yS85jGAeMrQQ
pM9QdMUb76sVlG7+Hm9IMxFTtH+h66s3Agli0FSAvviekPHHcahVC6vC/HLadkBg
RAMsYOyM8ygs1b6kckW8m56j3vH+COHYSTLf3YYGnQsQpiqmdzhy+yBLIy0d+Mu2
/yBhoYbtaz9IxUsljWzpGhqBcZ1niO1L8XjI/uKN8n4V6TVaNWpf9Fhq+op+mVa6
BGBMlpcqE1YiKHOVIY2kDC/eF12V9TUCAwEAAaOBnjCBmzAJBgNVHRMEAjAAMB0G
A1UdDgQWBBTNckqaz+usD+UD5Ho7v/YFEYsRtzBNBgNVHSMERjBEgBT+f8siGUY8
Ckv0STjnW6IoBkHnGqEWpBQwEjEQMA4GA1UEAwwHc2VydmVyMYIUUI/+pXH82BdY
tkzUiT5Fcl1gwRAwEwYDVR0lBAwwCgYIKwYBBQUHAwIwCwYDVR0PBAQDAgeAMA0G
CSqGSIb3DQEBCwUAA4IBAQCxjdlLgOnYNFw9TV4NDHNEnBHOWj7yD7SJOaaex6Dv
J4GGI5JbEAYiV3+jRt7WZ0MDV+FzFxhoaWzMATqcvXNDoEIXQ5NGysglDZjAJRIm
xaCxYqejLmWHXdKitmFbl1ua3SdSoFGRRfzsB+Q306xx+QLb3A5Tp11mqllAykjE
2eX+kVp5SxJOB73qqWxD7pWZ/XI2ioXnv+GdmNh980yRjkrg0C23rsTbEtevceWZ
sJ2RW4fWRVLwWGyOCRY2Xn5s9YAYGHRgK1JXuMMTSceuhMJzoVQO45Xw3voOgcaw
bRApLr1Aw6gbV+jH3bcdmr8eOnKNy9sZ2XRAoXC9NJa5
-----END CERTIFICATE-----
